target datalayout = "e-m:e-p270:32:32-p271:32:32-p272:64:64-i64:64-i128:128-f80:128-n8:16:32:64-S128"
target triple = "x86_64-pc-linux-gnu"

%struct.dt_pthread_mutex_t = type { %union.pthread_mutex_t }
%union.pthread_mutex_t = type { %struct.__pthread_mutex_s }
%struct.__pthread_mutex_s = type { i32, i32, i32, i32, i32, i16, i16, %struct.__pthread_internal_list }
%struct.__pthread_internal_list = type { ptr, ptr }
%struct.dt_iop_module_t = type { i32, ptr, ptr, ptr, ptr, ptr, ptr, ptr, ptr, ptr, ptr, ptr, ptr, ptr, ptr, ptr, ptr, ptr, ptr, ptr, ptr, ptr, ptr, ptr, ptr, ptr, ptr, ptr, ptr, ptr, ptr, ptr, ptr, ptr, ptr, ptr, ptr, ptr, ptr, ptr, ptr, ptr, ptr, ptr, ptr, ptr, ptr, ptr, ptr, ptr, ptr, ptr, ptr, ptr, ptr, ptr, ptr, [20 x i8], i32, i32, i32, i32, i32, i32, i32, [8 x i8], [4 x float], [4 x float], [4 x float], [4 x float], [4 x float], [4 x float], ptr, %struct.dt_dev_histogram_stats_t, [4 x i32], i32, i32, ptr, i32, i32, ptr, ptr, i32, ptr, %struct.dt_pthread_mutex_t, ptr, ptr, ptr, ptr, %struct.anon, ptr, ptr, ptr, ptr, ptr, ptr, ptr, i32, ptr, ptr, ptr, ptr, ptr, ptr, ptr, i32, ptr, i32, [128 x i8], i32, ptr, ptr, i32, [12 x i8] }
%struct.dt_dev_histogram_stats_t = type { i32, i64, i32, i32 }
%struct.anon = type { %struct.anon.0, %struct.anon.1 }
%struct.anon.0 = type { ptr, ptr }
%struct.anon.1 = type { ptr, i32 }
%struct.dt_iop_gui_blend_data_t = type { i32, i32, i32, i32, i32, i32, i32, ptr, ptr, ptr, ptr, ptr, ptr, ptr, ptr, ptr, ptr, ptr, ptr, ptr, [2 x %struct.dt_iop_gui_blendif_filter_t], ptr, ptr, ptr, ptr, ptr, ptr, ptr, ptr, ptr, ptr, ptr, ptr, i32, i32, ptr, i32, [8 x [2 x i32]], i32, i32, ptr, i32, ptr, ptr, ptr, [5 x ptr], [5 x i32], ptr, ptr, ptr, i32, ptr, ptr, i32, %struct.dt_pthread_mutex_t }
%struct.dt_iop_gui_blendif_filter_t = type { ptr, ptr, [4 x ptr], ptr, ptr, ptr }

@.str.107 = private unnamed_addr constant [1 x i8] zeroinitializer, align 1
@.str.120 = private unnamed_addr constant [7 x i8] c"output\00", align 1
@.str.121 = private unnamed_addr constant [6 x i8] c"input\00", align 1
@.str.205 = private unnamed_addr constant [5 x i8] c"%s%s\00", align 1
@.str.208 = private unnamed_addr constant [7 x i8] c" (log)\00", align 1

; Function Attrs: nounwind uwtable
define internal i32 @_blendop_blendif_disp_alternative_worker(ptr noundef %0, ptr noundef %1, i32 noundef %2, ptr noundef %3, ptr noundef %4) #0 {
  %6 = alloca ptr, align 8
  %7 = alloca ptr, align 8
  %8 = alloca i32, align 4
  %9 = alloca ptr, align 8
  %10 = alloca ptr, align 8
  %11 = alloca ptr, align 8
  %12 = alloca ptr, align 8
  %13 = alloca i32, align 4
  %14 = alloca ptr, align 8
  store ptr %0, ptr %6, align 8, !tbaa !11
  store ptr %1, ptr %7, align 8, !tbaa !6
  store i32 %2, ptr %8, align 4, !tbaa !80
  store ptr %3, ptr %9, align 8, !tbaa !168
  store ptr %4, ptr %10, align 8, !tbaa !141
  call void @llvm.lifetime.start.p0(i64 8, ptr %11) #11
  %15 = load ptr, ptr %7, align 8, !tbaa !6
  %16 = getelementptr inbounds nuw %struct.dt_iop_module_t, ptr %15, i32 0, i32 88
  %17 = load ptr, ptr %16, align 8, !tbaa !15
  store ptr %17, ptr %11, align 8, !tbaa !31
  call void @llvm.lifetime.start.p0(i64 8, ptr %12) #11
  %18 = load ptr, ptr %6, align 8, !tbaa !11
  store ptr %18, ptr %12, align 8, !tbaa !175
  call void @llvm.lifetime.start.p0(i64 4, ptr %13) #11
  %19 = load ptr, ptr %12, align 8, !tbaa !175
  %20 = load ptr, ptr %11, align 8, !tbaa !31
  %21 = getelementptr inbounds nuw %struct.dt_iop_gui_blend_data_t, ptr %20, i32 0, i32 20
  %22 = getelementptr inbounds [2 x %struct.dt_iop_gui_blendif_filter_t], ptr %21, i64 0, i64 1
  %23 = getelementptr inbounds nuw %struct.dt_iop_gui_blendif_filter_t, ptr %22, i32 0, i32 0
  %24 = load ptr, ptr %23, align 8, !tbaa !121
  %25 = icmp eq ptr %19, %24
  %26 = select i1 %25, i32 1, i32 0
  store i32 %26, ptr %13, align 4, !tbaa !80
  %27 = load ptr, ptr %12, align 8, !tbaa !175
  %28 = load i32, ptr %8, align 4, !tbaa !80
  %29 = icmp eq i32 %28, 1
  br i1 %29, label %30, label %32

30:                                               ; preds = %5
  %31 = load ptr, ptr %9, align 8, !tbaa !168
  br label %33

32:                                               ; preds = %5
  br label %33

33:                                               ; preds = %32, %30
  %34 = phi ptr [ %31, %30 ], [ null, %32 ]
  call void @dtgtk_gradient_slider_multivalue_set_scale_callback(ptr noundef %27, ptr noundef %34)
  call void @llvm.lifetime.start.p0(i64 8, ptr %14) #11
  %35 = load i32, ptr %13, align 4, !tbaa !80
  %36 = icmp eq i32 %35, 0
  br i1 %36, label %37, label %39

37:                                               ; preds = %33
  %38 = call ptr @dcgettext(ptr noundef null, ptr noundef @.str.121, i32 noundef 5) #11
  br label %41

39:                                               ; preds = %33
  %40 = call ptr @dcgettext(ptr noundef null, ptr noundef @.str.120, i32 noundef 5) #11
  br label %41

41:                                               ; preds = %39, %37
  %42 = phi ptr [ %38, %37 ], [ %40, %39 ]
  %43 = load i32, ptr %8, align 4, !tbaa !80
  %44 = icmp eq i32 %43, 1
  br i1 %44, label %45, label %47

45:                                               ; preds = %41
  %46 = load ptr, ptr %10, align 8, !tbaa !141
  br label %48

47:                                               ; preds = %41
  br label %48

48:                                               ; preds = %47, %45
  %49 = phi ptr [ %46, %45 ], [ @.str.107, %47 ]
  %50 = call noalias ptr (ptr, ...) @g_strdup_printf(ptr noundef @.str.205, ptr noundef %42, ptr noundef %49)
  store ptr %50, ptr %14, align 8, !tbaa !141
  %51 = load ptr, ptr %11, align 8, !tbaa !31
  %52 = getelementptr inbounds nuw %struct.dt_iop_gui_blend_data_t, ptr %51, i32 0, i32 20
  %53 = load i32, ptr %13, align 4, !tbaa !80
  %54 = sext i32 %53 to i64
  %55 = getelementptr inbounds [2 x %struct.dt_iop_gui_blendif_filter_t], ptr %52, i64 0, i64 %54
  %56 = getelementptr inbounds nuw %struct.dt_iop_gui_blendif_filter_t, ptr %55, i32 0, i32 1
  %57 = load ptr, ptr %56, align 8, !tbaa !167
  %58 = load ptr, ptr %14, align 8, !tbaa !141
  call void @gtk_label_set_text(ptr noundef %57, ptr noundef %58)
  %59 = load ptr, ptr %14, align 8, !tbaa !141
  call void @g_free(ptr noundef %59)
  %60 = load i32, ptr %8, align 4, !tbaa !80
  %61 = icmp eq i32 %60, 1
  %62 = select i1 %61, i32 1, i32 0
  call void @llvm.lifetime.end.p0(i64 8, ptr %14) #11
  call void @llvm.lifetime.end.p0(i64 4, ptr %13) #11
  call void @llvm.lifetime.end.p0(i64 8, ptr %12) #11
  call void @llvm.lifetime.end.p0(i64 8, ptr %11) #11
  ret i32 %62
}

; Function Attrs: nounwind uwtable
define internal i32 @_blendop_blendif_disp_alternative_log(ptr noundef %0, ptr noundef %1, i32 noundef %2) #0 {
  %4 = alloca ptr, align 8
  %5 = alloca ptr, align 8
  %6 = alloca i32, align 4
  store ptr %0, ptr %4, align 8, !tbaa !11
  store ptr %1, ptr %5, align 8, !tbaa !6
  store i32 %2, ptr %6, align 4, !tbaa !80
  %7 = load ptr, ptr %4, align 8, !tbaa !11
  %8 = load ptr, ptr %5, align 8, !tbaa !6
  %9 = load i32, ptr %6, align 4, !tbaa !80
  %10 = call ptr @dcgettext(ptr noundef null, ptr noundef @.str.208, i32 noundef 5) #11
  %11 = call i32 @_blendop_blendif_disp_alternative_worker(ptr noundef %7, ptr noundef %8, i32 noundef %9, ptr noundef @log10_scale_callback, ptr noundef %10)
  ret i32 %11
}